; Function Attrs: mustprogress uwtable
define void @_ZN9grpc_core23LegacyChannelIdleFilter17DecreaseCallCountEv(ptr noundef nonnull align 8 dereferenceable(64) %this) local_unnamed_addr #3 align 2 {
entry:
  %idle_filter_state_ = getelementptr inbounds i8, ptr %this, i64 40
  %0 = load ptr, ptr %idle_filter_state_, align 8
  %call2 = tail call noundef zeroext i1 @_ZN9grpc_core15IdleFilterState17DecreaseCallCountEv(ptr noundef nonnull align 8 dereferenceable(8) %0)
  br i1 %call2, label %if.then, label %if.end

if.then:                                          ; preds = %entry
  tail call void @_ZN9grpc_core23LegacyChannelIdleFilter14StartIdleTimerEv(ptr noundef nonnull align 8 dereferenceable(64) %this)
  br label %if.end

if.end:                                           ; preds = %if.then, %entry
  ret void
}